target datalayout = "e-m:e-p270:32:32-p271:32:32-p272:64:64-i64:64-i128:128-f80:128-n8:16:32:64-S128"
target triple = "x86_64-pc-linux-gnu"

; Function Attrs: nounwind uwtable
define i32 @pg_strcasecmp(ptr noundef %0, ptr noundef %1) #0 {
  %3 = alloca i32, align 4
  %4 = alloca ptr, align 8
  %5 = alloca ptr, align 8
  %6 = alloca i8, align 1
  %7 = alloca i8, align 1
  %8 = alloca i32, align 4
  %9 = alloca i32, align 4
  %10 = alloca i32, align 4
  %11 = alloca i32, align 4
  %12 = alloca i32, align 4
  store ptr %0, ptr %4, align 8
  store ptr %1, ptr %5, align 8
  br label %13

13:                                               ; preds = %128, %2
  call void @llvm.lifetime.start.p0(i64 1, ptr %6) #3
  %14 = load ptr, ptr %4, align 8
  %15 = getelementptr inbounds nuw i8, ptr %14, i32 1
  store ptr %15, ptr %4, align 8
  %16 = load i8, ptr %14, align 1
  store i8 %16, ptr %6, align 1
  call void @llvm.lifetime.start.p0(i64 1, ptr %7) #3
  %17 = load ptr, ptr %5, align 8
  %18 = getelementptr inbounds nuw i8, ptr %17, i32 1
  store ptr %18, ptr %5, align 8
  %19 = load i8, ptr %17, align 1
  store i8 %19, ptr %7, align 1
  %20 = load i8, ptr %6, align 1
  %21 = zext i8 %20 to i32
  %22 = load i8, ptr %7, align 1
  %23 = zext i8 %22 to i32
  %24 = icmp ne i32 %21, %23
  br i1 %24, label %25, label %120

25:                                               ; preds = %13
  %26 = load i8, ptr %6, align 1
  %27 = zext i8 %26 to i32
  %28 = icmp sge i32 %27, 65
  br i1 %28, label %29, label %38

29:                                               ; preds = %25
  %30 = load i8, ptr %6, align 1
  %31 = zext i8 %30 to i32
  %32 = icmp sle i32 %31, 90
  br i1 %32, label %33, label %38

33:                                               ; preds = %29
  %34 = load i8, ptr %6, align 1
  %35 = zext i8 %34 to i32
  %36 = add i32 %35, 32
  %37 = trunc i32 %36 to i8
  store i8 %37, ptr %6, align 1
  br label %66

38:                                               ; preds = %29, %25
  %39 = load i8, ptr %6, align 1
  %40 = zext i8 %39 to i32
  %41 = and i32 %40, 128
  %42 = icmp ne i32 %41, 0
  br i1 %42, label %43, label %65

43:                                               ; preds = %38
  %44 = call ptr @__ctype_b_loc() #4
  %45 = load ptr, ptr %44, align 8
  %46 = load i8, ptr %6, align 1
  %47 = zext i8 %46 to i32
  %48 = sext i32 %47 to i64
  %49 = getelementptr inbounds i16, ptr %45, i64 %48
  %50 = load i16, ptr %49, align 2
  %51 = zext i16 %50 to i32
  %52 = and i32 %51, 256
  %53 = icmp ne i32 %52, 0
  br i1 %53, label %54, label %65

54:                                               ; preds = %43
  call void @llvm.lifetime.start.p0(i64 4, ptr %8) #3
  %55 = call ptr @__ctype_tolower_loc() #4
  %56 = load ptr, ptr %55, align 8
  %57 = load i8, ptr %6, align 1
  %58 = zext i8 %57 to i32
  %59 = sext i32 %58 to i64
  %60 = getelementptr inbounds i32, ptr %56, i64 %59
  %61 = load i32, ptr %60, align 4
  store i32 %61, ptr %8, align 4
  %62 = load i32, ptr %8, align 4
  store i32 %62, ptr %9, align 4
  call void @llvm.lifetime.end.p0(i64 4, ptr %8) #3
  %63 = load i32, ptr %9, align 4
  %64 = trunc i32 %63 to i8
  store i8 %64, ptr %6, align 1
  br label %65

65:                                               ; preds = %54, %43, %38
  br label %66

66:                                               ; preds = %65, %33
  %67 = load i8, ptr %7, align 1
  %68 = zext i8 %67 to i32
  %69 = icmp sge i32 %68, 65
  br i1 %69, label %70, label %79

70:                                               ; preds = %66
  %71 = load i8, ptr %7, align 1
  %72 = zext i8 %71 to i32
  %73 = icmp sle i32 %72, 90
  br i1 %73, label %74, label %79

74:                                               ; preds = %70
  %75 = load i8, ptr %7, align 1
  %76 = zext i8 %75 to i32
  %77 = add i32 %76, 32
  %78 = trunc i32 %77 to i8
  store i8 %78, ptr %7, align 1
  br label %107

79:                                               ; preds = %70, %66
  %80 = load i8, ptr %7, align 1
  %81 = zext i8 %80 to i32
  %82 = and i32 %81, 128
  %83 = icmp ne i32 %82, 0
  br i1 %83, label %84, label %106

84:                                               ; preds = %79
  %85 = call ptr @__ctype_b_loc() #4
  %86 = load ptr, ptr %85, align 8
  %87 = load i8, ptr %7, align 1
  %88 = zext i8 %87 to i32
  %89 = sext i32 %88 to i64
  %90 = getelementptr inbounds i16, ptr %86, i64 %89
  %91 = load i16, ptr %90, align 2
  %92 = zext i16 %91 to i32
  %93 = and i32 %92, 256
  %94 = icmp ne i32 %93, 0
  br i1 %94, label %95, label %106

95:                                               ; preds = %84
  call void @llvm.lifetime.start.p0(i64 4, ptr %10) #3
  %96 = call ptr @__ctype_tolower_loc() #4
  %97 = load ptr, ptr %96, align 8
  %98 = load i8, ptr %7, align 1
  %99 = zext i8 %98 to i32
  %100 = sext i32 %99 to i64
  %101 = getelementptr inbounds i32, ptr %97, i64 %100
  %102 = load i32, ptr %101, align 4
  store i32 %102, ptr %10, align 4
  %103 = load i32, ptr %10, align 4
  store i32 %103, ptr %11, align 4
  call void @llvm.lifetime.end.p0(i64 4, ptr %10) #3
  %104 = load i32, ptr %11, align 4
  %105 = trunc i32 %104 to i8
  store i8 %105, ptr %7, align 1
  br label %106

106:                                              ; preds = %95, %84, %79
  br label %107

107:                                              ; preds = %106, %74
  %108 = load i8, ptr %6, align 1
  %109 = zext i8 %108 to i32
  %110 = load i8, ptr %7, align 1
  %111 = zext i8 %110 to i32
  %112 = icmp ne i32 %109, %111
  br i1 %112, label %113, label %119

113:                                              ; preds = %107
  %114 = load i8, ptr %6, align 1
  %115 = zext i8 %114 to i32
  %116 = load i8, ptr %7, align 1
  %117 = zext i8 %116 to i32
  %118 = sub i32 %115, %117
  store i32 %118, ptr %3, align 4
  store i32 1, ptr %12, align 4
  br label %126

119:                                              ; preds = %107
  br label %120

120:                                              ; preds = %119, %13
  %121 = load i8, ptr %6, align 1
  %122 = zext i8 %121 to i32
  %123 = icmp eq i32 %122, 0
  br i1 %123, label %124, label %125

124:                                              ; preds = %120
  store i32 2, ptr %12, align 4
  br label %126

125:                                              ; preds = %120
  store i32 0, ptr %12, align 4
  br label %126

126:                                              ; preds = %125, %124, %113
  call void @llvm.lifetime.end.p0(i64 1, ptr %7) #3
  call void @llvm.lifetime.end.p0(i64 1, ptr %6) #3
  %127 = load i32, ptr %12, align 4
  switch i32 %127, label %132 [
    i32 0, label %128
    i32 1, label %130
    i32 2, label %129
  ]

128:                                              ; preds = %126
  br label %13

129:                                              ; preds = %126
  store i32 0, ptr %3, align 4
  br label %130

130:                                              ; preds = %129, %126
  %131 = load i32, ptr %3, align 4
  ret i32 %131

132:                                              ; preds = %126
  unreachable
}