; Function Attrs: nofree nosync nounwind memory(read, inaccessiblemem: none) uwtable
define range(i32 -255, 256) i32 @pg_strcasecmp(ptr noundef readonly captures(none) %0, ptr noundef readonly captures(none) %1) local_unnamed_addr #0 {
  br label %3

3:                                                ; preds = %48, %2
  %.033 = phi ptr [ %1, %2 ], [ %6, %48 ]
  %.032 = phi ptr [ %0, %2 ], [ %4, %48 ]
  %4 = getelementptr inbounds nuw i8, ptr %.032, i64 1
  %5 = load i8, ptr %.032, align 1
  %6 = getelementptr inbounds nuw i8, ptr %.033, i64 1
  %7 = load i8, ptr %.033, align 1
  %.not = icmp eq i8 %5, %7
  br i1 %.not, label %48, label %8

8:                                                ; preds = %3
  %9 = add i8 %5, -65
  %or.cond = icmp ult i8 %9, 26
  br i1 %or.cond, label %10, label %12

10:                                               ; preds = %8
  %11 = or disjoint i8 %5, 32
  br label %26

12:                                               ; preds = %8
  %.not41 = icmp sgt i8 %5, -1
  br i1 %.not41, label %26, label %13

13:                                               ; preds = %12
  %14 = tail call ptr @__ctype_b_loc() #4
  %15 = load ptr, ptr %14, align 8
  %16 = zext i8 %5 to i64
  %17 = getelementptr inbounds nuw i16, ptr %15, i64 %16
  %18 = load i16, ptr %17, align 2
  %19 = and i16 %18, 256
  %.not42 = icmp eq i16 %19, 0
  br i1 %.not42, label %26, label %20

20:                                               ; preds = %13
  %21 = tail call ptr @__ctype_tolower_loc() #4
  %22 = load ptr, ptr %21, align 8
  %23 = getelementptr inbounds nuw i32, ptr %22, i64 %16
  %24 = load i32, ptr %23, align 4
  %25 = trunc i32 %24 to i8
  br label %26

26:                                               ; preds = %12, %13, %20, %10
  %.135 = phi i8 [ %11, %10 ], [ %25, %20 ], [ %5, %13 ], [ %5, %12 ]
  %27 = add i8 %7, -65
  %or.cond5 = icmp ult i8 %27, 26
  br i1 %or.cond5, label %28, label %30

28:                                               ; preds = %26
  %29 = or disjoint i8 %7, 32
  br label %44

30:                                               ; preds = %26
  %.not43 = icmp sgt i8 %7, -1
  br i1 %.not43, label %44, label %31

31:                                               ; preds = %30
  %32 = tail call ptr @__ctype_b_loc() #4
  %33 = load ptr, ptr %32, align 8
  %34 = zext i8 %7 to i64
  %35 = getelementptr inbounds nuw i16, ptr %33, i64 %34
  %36 = load i16, ptr %35, align 2
  %37 = and i16 %36, 256
  %.not44 = icmp eq i16 %37, 0
  br i1 %.not44, label %44, label %38

38:                                               ; preds = %31
  %39 = tail call ptr @__ctype_tolower_loc() #4
  %40 = load ptr, ptr %39, align 8
  %41 = getelementptr inbounds nuw i32, ptr %40, i64 %34
  %42 = load i32, ptr %41, align 4
  %43 = trunc i32 %42 to i8
  br label %44

44:                                               ; preds = %30, %31, %38, %28
  %.036 = phi i8 [ %29, %28 ], [ %43, %38 ], [ %7, %31 ], [ %7, %30 ]
  %.not45 = icmp eq i8 %.135, %.036
  br i1 %.not45, label %48, label %.thread

.thread:                                          ; preds = %44
  %45 = zext i8 %.036 to i32
  %46 = zext i8 %.135 to i32
  %47 = sub nsw i32 %46, %45
  br label %.loopexit

48:                                               ; preds = %44, %3
  %.034 = phi i8 [ %.135, %44 ], [ %5, %3 ]
  %49 = icmp eq i8 %.034, 0
  br i1 %49, label %.loopexit, label %3

.loopexit:                                        ; preds = %48, %.thread
  %.2 = phi i32 [ %47, %.thread ], [ 0, %48 ]
  ret i32 %.2
}